target datalayout = "e-m:e-p270:32:32-p271:32:32-p272:64:64-i64:64-i128:128-f80:128-n8:16:32:64-S128"
target triple = "x86_64-pc-linux-gnu"

@.str = private unnamed_addr constant [14 x i8] c"out of memory\00", align 1
@.str.242 = private unnamed_addr constant [36 x i8] c"invalid percent-encoded token: \22%s\22\00", align 1
@.str.243 = private unnamed_addr constant [52 x i8] c"forbidden value %%00 in percent-encoded value: \22%s\22\00", align 1
@.str.244 = private unnamed_addr constant [75 x i8] c"unexpected spaces found in \22%s\22, use percent-encoded spaces (%%20) instead\00", align 1

; Function Attrs: nounwind uwtable
define internal zeroext i1 @get_hexdigit(i8 noundef signext %0, ptr noundef %1) #0 {
  %3 = alloca i1, align 1
  %4 = alloca i8, align 1
  %5 = alloca ptr, align 8
  store i8 %0, ptr %4, align 1
  store ptr %1, ptr %5, align 8
  %6 = load i8, ptr %4, align 1
  %7 = sext i8 %6 to i32
  %8 = icmp sle i32 48, %7
  br i1 %8, label %9, label %18

9:                                                ; preds = %2
  %10 = load i8, ptr %4, align 1
  %11 = sext i8 %10 to i32
  %12 = icmp sle i32 %11, 57
  br i1 %12, label %13, label %18

13:                                               ; preds = %9
  %14 = load i8, ptr %4, align 1
  %15 = sext i8 %14 to i32
  %16 = sub i32 %15, 48
  %17 = load ptr, ptr %5, align 8
  store i32 %16, ptr %17, align 4
  br label %49

18:                                               ; preds = %9, %2
  %19 = load i8, ptr %4, align 1
  %20 = sext i8 %19 to i32
  %21 = icmp sle i32 65, %20
  br i1 %21, label %22, label %32

22:                                               ; preds = %18
  %23 = load i8, ptr %4, align 1
  %24 = sext i8 %23 to i32
  %25 = icmp sle i32 %24, 70
  br i1 %25, label %26, label %32

26:                                               ; preds = %22
  %27 = load i8, ptr %4, align 1
  %28 = sext i8 %27 to i32
  %29 = sub i32 %28, 65
  %30 = add i32 %29, 10
  %31 = load ptr, ptr %5, align 8
  store i32 %30, ptr %31, align 4
  br label %48

32:                                               ; preds = %22, %18
  %33 = load i8, ptr %4, align 1
  %34 = sext i8 %33 to i32
  %35 = icmp sle i32 97, %34
  br i1 %35, label %36, label %46

36:                                               ; preds = %32
  %37 = load i8, ptr %4, align 1
  %38 = sext i8 %37 to i32
  %39 = icmp sle i32 %38, 102
  br i1 %39, label %40, label %46

40:                                               ; preds = %36
  %41 = load i8, ptr %4, align 1
  %42 = sext i8 %41 to i32
  %43 = sub i32 %42, 97
  %44 = add i32 %43, 10
  %45 = load ptr, ptr %5, align 8
  store i32 %44, ptr %45, align 4
  br label %47

46:                                               ; preds = %36, %32
  store i1 false, ptr %3, align 1
  br label %50

47:                                               ; preds = %40
  br label %48

48:                                               ; preds = %47, %26
  br label %49

49:                                               ; preds = %48, %13
  store i1 true, ptr %3, align 1
  br label %50

50:                                               ; preds = %49, %46
  %51 = load i1, ptr %3, align 1
  ret i1 %51
}

; Function Attrs: nounwind uwtable
define internal ptr @conninfo_uri_decode(ptr noundef %0, ptr noundef %1) #0 {
  %3 = alloca ptr, align 8
  %4 = alloca ptr, align 8
  %5 = alloca ptr, align 8
  %6 = alloca ptr, align 8
  %7 = alloca ptr, align 8
  %8 = alloca ptr, align 8
  %9 = alloca i32, align 4
  %10 = alloca ptr, align 8
  %11 = alloca i32, align 4
  %12 = alloca i32, align 4
  %13 = alloca i32, align 4
  %14 = alloca ptr, align 8
  store ptr %0, ptr %4, align 8
  store ptr %1, ptr %5, align 8
  call void @llvm.lifetime.start.p0(i64 8, ptr %6) #12
  call void @llvm.lifetime.start.p0(i64 8, ptr %7) #12
  call void @llvm.lifetime.start.p0(i64 8, ptr %8) #12
  %15 = load ptr, ptr %4, align 8
  store ptr %15, ptr %8, align 8
  %16 = load ptr, ptr %4, align 8
  %17 = call i64 @strlen(ptr noundef %16) #13
  %18 = add i64 %17, 1
  %19 = call noalias ptr @malloc(i64 noundef %18) #14
  store ptr %19, ptr %6, align 8
  %20 = load ptr, ptr %6, align 8
  %21 = icmp eq ptr %20, null
  br i1 %21, label %22, label %24

22:                                               ; preds = %2
  %23 = load ptr, ptr %5, align 8
  call void (ptr, ptr, ...) @libpq_append_error(ptr noundef %23, ptr noundef @.str)
  store ptr null, ptr %3, align 8
  store i32 1, ptr %9, align 4
  br label %124

24:                                               ; preds = %2
  %25 = load ptr, ptr %6, align 8
  store ptr %25, ptr %7, align 8
  call void @llvm.lifetime.start.p0(i64 8, ptr %10) #12
  %26 = load ptr, ptr %8, align 8
  store ptr %26, ptr %10, align 8
  br label %27

27:                                               ; preds = %36, %24
  %28 = load ptr, ptr %10, align 8
  %29 = load i8, ptr %28, align 1
  %30 = sext i8 %29 to i32
  %31 = icmp eq i32 %30, 32
  br i1 %31, label %33, label %32

32:                                               ; preds = %27
  store i32 2, ptr %9, align 4
  call void @llvm.lifetime.end.p0(i64 8, ptr %10) #12
  br label %39

33:                                               ; preds = %27
  %34 = load ptr, ptr %8, align 8
  %35 = getelementptr inbounds nuw i8, ptr %34, i32 1
  store ptr %35, ptr %8, align 8
  br label %36

36:                                               ; preds = %33
  %37 = load ptr, ptr %10, align 8
  %38 = getelementptr inbounds nuw i8, ptr %37, i32 1
  store ptr %38, ptr %10, align 8
  br label %27, !llvm.loop !62

39:                                               ; preds = %32
  br label %40

40:                                               ; preds = %97, %39
  %41 = load ptr, ptr %8, align 8
  %42 = load i8, ptr %41, align 1
  %43 = sext i8 %42 to i32
  %44 = icmp ne i32 %43, 37
  br i1 %44, label %45, label %62

45:                                               ; preds = %40
  %46 = load ptr, ptr %8, align 8
  %47 = load i8, ptr %46, align 1
  %48 = sext i8 %47 to i32
  %49 = icmp eq i32 %48, 32
  br i1 %49, label %55, label %50

50:                                               ; preds = %45
  %51 = load ptr, ptr %8, align 8
  %52 = load i8, ptr %51, align 1
  %53 = sext i8 %52 to i32
  %54 = icmp eq i32 %53, 0
  br i1 %54, label %55, label %56

55:                                               ; preds = %50, %45
  br label %98

56:                                               ; preds = %50
  %57 = load ptr, ptr %8, align 8
  %58 = getelementptr inbounds nuw i8, ptr %57, i32 1
  store ptr %58, ptr %8, align 8
  %59 = load i8, ptr %57, align 1
  %60 = load ptr, ptr %7, align 8
  %61 = getelementptr inbounds nuw i8, ptr %60, i32 1
  store ptr %61, ptr %7, align 8
  store i8 %59, ptr %60, align 1
  br label %97

62:                                               ; preds = %40
  call void @llvm.lifetime.start.p0(i64 4, ptr %11) #12
  call void @llvm.lifetime.start.p0(i64 4, ptr %12) #12
  call void @llvm.lifetime.start.p0(i64 4, ptr %13) #12
  %63 = load ptr, ptr %8, align 8
  %64 = getelementptr inbounds nuw i8, ptr %63, i32 1
  store ptr %64, ptr %8, align 8
  %65 = load ptr, ptr %8, align 8
  %66 = getelementptr inbounds nuw i8, ptr %65, i32 1
  store ptr %66, ptr %8, align 8
  %67 = load i8, ptr %65, align 1
  %68 = call zeroext i1 @get_hexdigit(i8 noundef signext %67, ptr noundef %11)
  br i1 %68, label %69, label %74

69:                                               ; preds = %62
  %70 = load ptr, ptr %8, align 8
  %71 = getelementptr inbounds nuw i8, ptr %70, i32 1
  store ptr %71, ptr %8, align 8
  %72 = load i8, ptr %70, align 1
  %73 = call zeroext i1 @get_hexdigit(i8 noundef signext %72, ptr noundef %12)
  br i1 %73, label %78, label %74

74:                                               ; preds = %69, %62
  %75 = load ptr, ptr %5, align 8
  %76 = load ptr, ptr %4, align 8
  call void (ptr, ptr, ...) @libpq_append_error(ptr noundef %75, ptr noundef @.str.242, ptr noundef %76)
  %77 = load ptr, ptr %6, align 8
  call void @free(ptr noundef %77) #12
  store ptr null, ptr %3, align 8
  store i32 1, ptr %9, align 4
  br label %94

78:                                               ; preds = %69
  %79 = load i32, ptr %11, align 4
  %80 = shl i32 %79, 4
  %81 = load i32, ptr %12, align 4
  %82 = or i32 %80, %81
  store i32 %82, ptr %13, align 4
  %83 = load i32, ptr %13, align 4
  %84 = icmp eq i32 %83, 0
  br i1 %84, label %85, label %89

85:                                               ; preds = %78
  %86 = load ptr, ptr %5, align 8
  %87 = load ptr, ptr %4, align 8
  call void (ptr, ptr, ...) @libpq_append_error(ptr noundef %86, ptr noundef @.str.243, ptr noundef %87)
  %88 = load ptr, ptr %6, align 8
  call void @free(ptr noundef %88) #12
  store ptr null, ptr %3, align 8
  store i32 1, ptr %9, align 4
  br label %94

89:                                               ; preds = %78
  %90 = load i32, ptr %13, align 4
  %91 = trunc i32 %90 to i8
  %92 = load ptr, ptr %7, align 8
  %93 = getelementptr inbounds nuw i8, ptr %92, i32 1
  store ptr %93, ptr %7, align 8
  store i8 %91, ptr %92, align 1
  store i32 0, ptr %9, align 4
  br label %94

94:                                               ; preds = %89, %85, %74
  call void @llvm.lifetime.end.p0(i64 4, ptr %13) #12
  call void @llvm.lifetime.end.p0(i64 4, ptr %12) #12
  call void @llvm.lifetime.end.p0(i64 4, ptr %11) #12
  %95 = load i32, ptr %9, align 4
  switch i32 %95, label %124 [
    i32 0, label %96
  ]

96:                                               ; preds = %94
  br label %97

97:                                               ; preds = %96, %56
  br label %40

98:                                               ; preds = %55
  call void @llvm.lifetime.start.p0(i64 8, ptr %14) #12
  %99 = load ptr, ptr %8, align 8
  store ptr %99, ptr %14, align 8
  br label %100

100:                                              ; preds = %109, %98
  %101 = load ptr, ptr %14, align 8
  %102 = load i8, ptr %101, align 1
  %103 = sext i8 %102 to i32
  %104 = icmp eq i32 %103, 32
  br i1 %104, label %106, label %105

105:                                              ; preds = %100
  store i32 8, ptr %9, align 4
  call void @llvm.lifetime.end.p0(i64 8, ptr %14) #12
  br label %112

106:                                              ; preds = %100
  %107 = load ptr, ptr %8, align 8
  %108 = getelementptr inbounds nuw i8, ptr %107, i32 1
  store ptr %108, ptr %8, align 8
  br label %109

109:                                              ; preds = %106
  %110 = load ptr, ptr %14, align 8
  %111 = getelementptr inbounds nuw i8, ptr %110, i32 1
  store ptr %111, ptr %14, align 8
  br label %100, !llvm.loop !63

112:                                              ; preds = %105
  %113 = load ptr, ptr %8, align 8
  %114 = load i8, ptr %113, align 1
  %115 = sext i8 %114 to i32
  %116 = icmp ne i32 %115, 0
  br i1 %116, label %117, label %121

117:                                              ; preds = %112
  %118 = load ptr, ptr %5, align 8
  %119 = load ptr, ptr %4, align 8
  call void (ptr, ptr, ...) @libpq_append_error(ptr noundef %118, ptr noundef @.str.244, ptr noundef %119)
  %120 = load ptr, ptr %6, align 8
  call void @free(ptr noundef %120) #12
  store ptr null, ptr %3, align 8
  store i32 1, ptr %9, align 4
  br label %124

121:                                              ; preds = %112
  %122 = load ptr, ptr %7, align 8
  store i8 0, ptr %122, align 1
  %123 = load ptr, ptr %6, align 8
  store ptr %123, ptr %3, align 8
  store i32 1, ptr %9, align 4
  br label %124

124:                                              ; preds = %121, %117, %94, %22
  call void @llvm.lifetime.end.p0(i64 8, ptr %8) #12
  call void @llvm.lifetime.end.p0(i64 8, ptr %7) #12
  call void @llvm.lifetime.end.p0(i64 8, ptr %6) #12
  %125 = load ptr, ptr %3, align 8
  ret ptr %125
}