; Function Attrs: nounwind uwtable
define internal fastcc noalias noundef ptr @conninfo_uri_decode(ptr noundef %0, ptr noundef nonnull %1) unnamed_addr #0 {
  %3 = tail call i64 @strlen(ptr noundef nonnull dereferenceable(1) %0) #26
  %4 = add i64 %3, 1
  %5 = tail call noalias ptr @malloc(i64 noundef %4) #27
  %6 = icmp eq ptr %5, null
  br i1 %6, label %9, label %.preheader77

.preheader77:                                     ; preds = %2
  %7 = load i8, ptr %0, align 1
  %8 = icmp eq i8 %7, 32
  br i1 %8, label %.lr.ph, label %.preheader.preheader

9:                                                ; preds = %2
  tail call void (ptr, ptr, ...) @libpq_append_error(ptr noundef nonnull %1, ptr noundef nonnull @.str) #25
  br label %.thread

.lr.ph:                                           ; preds = %.preheader77, %.lr.ph
  %.03883 = phi ptr [ %10, %.lr.ph ], [ %0, %.preheader77 ]
  %10 = getelementptr i8, ptr %.03883, i64 1
  %11 = load i8, ptr %10, align 1
  %12 = icmp eq i8 %11, 32
  br i1 %12, label %.lr.ph, label %.preheader.preheader, !llvm.loop !54

.preheader.preheader:                             ; preds = %.lr.ph, %.preheader77
  %.ph = phi i8 [ %7, %.preheader77 ], [ %11, %.lr.ph ]
  %.141.ph = phi ptr [ %0, %.preheader77 ], [ %10, %.lr.ph ]
  br label %.preheader

.preheader:                                       ; preds = %.preheader.preheader, %44
  %13 = phi i8 [ %.pre, %44 ], [ %.ph, %.preheader.preheader ]
  %.044 = phi ptr [ %.145, %44 ], [ %5, %.preheader.preheader ]
  %.141 = phi ptr [ %.242, %44 ], [ %.141.ph, %.preheader.preheader ]
  switch i8 %13, label %14 [
    i8 37, label %16
    i8 32, label %.lr.ph86
    i8 0, label %._crit_edge
  ]

14:                                               ; preds = %.preheader
  %15 = getelementptr inbounds nuw i8, ptr %.141, i64 1
  br label %44

16:                                               ; preds = %.preheader
  %17 = getelementptr inbounds nuw i8, ptr %.141, i64 1
  %18 = getelementptr inbounds nuw i8, ptr %.141, i64 2
  %19 = load i8, ptr %17, align 1
  %20 = sext i8 %19 to i32
  %21 = add i8 %19, -48
  %or.cond.i = icmp ult i8 %21, 10
  br i1 %or.cond.i, label %26, label %22

22:                                               ; preds = %16
  %23 = add i8 %19, -65
  %or.cond5.i = icmp ult i8 %23, 6
  br i1 %or.cond5.i, label %26, label %24

24:                                               ; preds = %22
  %25 = add i8 %19, -97
  %or.cond8.i = icmp ult i8 %25, 6
  br i1 %or.cond8.i, label %26, label %get_hexdigit.exit

26:                                               ; preds = %16, %22, %24
  %.sink21.i = phi i32 [ -48, %16 ], [ -55, %22 ], [ -87, %24 ]
  %27 = add nsw i32 %.sink21.i, %20
  %28 = getelementptr inbounds nuw i8, ptr %.141, i64 3
  %29 = load i8, ptr %18, align 1
  %30 = sext i8 %29 to i32
  %31 = add i8 %29, -48
  %or.cond.i51 = icmp ult i8 %31, 10
  br i1 %or.cond.i51, label %36, label %32

32:                                               ; preds = %26
  %33 = add i8 %29, -65
  %or.cond5.i52 = icmp ult i8 %33, 6
  br i1 %or.cond5.i52, label %36, label %34

34:                                               ; preds = %32
  %35 = add i8 %29, -97
  %or.cond8.i53 = icmp ult i8 %35, 6
  br i1 %or.cond8.i53, label %36, label %get_hexdigit.exit

get_hexdigit.exit:                                ; preds = %34, %24
  tail call void (ptr, ptr, ...) @libpq_append_error(ptr noundef nonnull %1, ptr noundef nonnull @.str.242, ptr noundef nonnull %0) #25
  tail call void @free(ptr noundef %5) #25
  br label %.thread

36:                                               ; preds = %26, %32, %34
  %.sink21.i56 = phi i32 [ -48, %26 ], [ -55, %32 ], [ -87, %34 ]
  %37 = add nsw i32 %.sink21.i56, %30
  %38 = shl nsw i32 %27, 4
  %39 = or i32 %37, %38
  %40 = icmp eq i32 %39, 0
  br i1 %40, label %41, label %42

41:                                               ; preds = %36
  tail call void (ptr, ptr, ...) @libpq_append_error(ptr noundef nonnull %1, ptr noundef nonnull @.str.243, ptr noundef nonnull %0) #25
  tail call void @free(ptr noundef %5) #25
  br label %.thread

42:                                               ; preds = %36
  %43 = trunc i32 %39 to i8
  br label %44

44:                                               ; preds = %42, %14
  %storemerge = phi i8 [ %43, %42 ], [ %13, %14 ]
  %.242 = phi ptr [ %28, %42 ], [ %15, %14 ]
  %.145 = getelementptr inbounds nuw i8, ptr %.044, i64 1
  store i8 %storemerge, ptr %.044, align 1
  %.pre = load i8, ptr %.242, align 1
  br label %.preheader

._crit_edge:                                      ; preds = %.preheader, %.lr.ph86
  %45 = phi i8 [ %47, %.lr.ph86 ], [ %13, %.preheader ]
  %.not50 = icmp eq i8 %45, 0
  br i1 %.not50, label %50, label %49

.lr.ph86:                                         ; preds = %.preheader, %.lr.ph86
  %.085 = phi ptr [ %46, %.lr.ph86 ], [ %.141, %.preheader ]
  %46 = getelementptr i8, ptr %.085, i64 1
  %47 = load i8, ptr %46, align 1
  %48 = icmp eq i8 %47, 32
  br i1 %48, label %.lr.ph86, label %._crit_edge, !llvm.loop !55

49:                                               ; preds = %._crit_edge
  tail call void (ptr, ptr, ...) @libpq_append_error(ptr noundef nonnull %1, ptr noundef nonnull @.str.244, ptr noundef nonnull %0) #25
  tail call void @free(ptr noundef %5) #25
  br label %.thread

50:                                               ; preds = %._crit_edge
  store i8 0, ptr %.044, align 1
  br label %.thread

.thread:                                          ; preds = %get_hexdigit.exit, %41, %50, %49, %9
  %.037 = phi ptr [ null, %9 ], [ null, %49 ], [ %5, %50 ], [ null, %41 ], [ null, %get_hexdigit.exit ]
  ret ptr %.037
}